MPASM 5.65                         RELOJ.ASM   3-7-2016  14:41:07         PAGE  1


LOC  OBJECT CODE     LINE SOURCE TEXT
  VALUE

                      00001 ;Universidad del Valle de Guatemala
                      00002 ;Microcontroladores Aplicados a la Industria
                      00003 ;Sección 21
                      00004 ;Daniel Lara Moir
                      00005 ;13424
                      00006 ;Reloj.asm   
                      00007 ;Programa para reloj en formato 24h HH:MM:SS.   
                      00008         
Warning[205]: Found directive in column 1. (list)
                      00009 list      p=16F84A            ; list directive to define processor
                      00010 #include <p16F84A.inc>        ; processor specific variable definitions
                      00001         LIST
                      00002 
                      00003 ;==========================================================================
                      00004 ; Build date : Dec 08 2015
                      00005 ;  MPASM PIC16F84A processor include
                      00006 ; 
                      00007 ;  (c) Copyright 1999-2015 Microchip Technology, All rights reserved
                      00008 ;==========================================================================
                      00009 
                      00209         LIST
                      00011 
Warning[205]: Found directive in column 1. (__CONFIG)
2007   3FF2           00012 __CONFIG   _CP_OFF & _WDT_OFF & _PWRTE_ON & _HS_OSC
                      00013     
                      00014 ;***************VARIABLE DEFINITION*********************************************
Warning[205]: Found directive in column 1. (UDATA_SHR)
                      00015 UDATA_SHR 0x0C
  00000020            00016 w_temp          EQU     0x20            ; variable used for context saving
  000000A0            00017 w_temp1         EQU     0xA0            ; reserve bank1 equivalent of w_temp 
  00000021            00018 status_temp     EQU     0x21            ; variable used for context saving
  00000022            00019 pclath_temp     EQU     0x22            ; variable used for context saving
000C                  00020 delay_counter   res 1                   ; For one second delay.
000D                  00021 delay_counter_1 res 1                   
000E                  00022 seconds         res 1                   ; Variables for time storage.
000F                  00023 seconds_t       res 1   
0010                  00024 seconds_u       res 1
0011                  00025 minutes         res 1
0012                  00026 minutes_t       res 1
0013                  00027 minutes_u       res 1
0014                  00028 hours           res 1
0015                  00029 hours_t         res 1
0016                  00030 hours_u         res 1
0017                  00031 alarm_minutes   res 1                   ; Variables for alarm setting.
0018                  00032 alarm_hours     res 1
0019                  00033 alarm_status    res 1   
001A                  00034 column_counter  res 1
001B                  00035 column_index    res 1
001C                  00036 stripe_1        res 1
001D                  00037 stripe_2        res 1
001E                  00038 stripe_3        res 1
001F                  00039 stripe_4        res 1
0020                  00040 space_stripe    res 1
MPASM 5.65                         RELOJ.ASM   3-7-2016  14:41:07         PAGE  2


LOC  OBJECT CODE     LINE SOURCE TEXT
  VALUE

0021                  00041 msb             res 1
0022                  00042 xor_var         res 1
0023                  00043 minutes_delay_counter   res 1
0024                  00044 minutes_delay_counter_1 res 1
0025                  00045 hours_delay_counter     res 1
0026                  00046 hours_delay_counter_1   res 1
0027                  00047 animation               res 1
0028                  00048 animation_delay_counter res 1
0029                  00049 animation_delay_counter_1 res 1
                      00050 ;*******************************************************************************
Warning[205]: Found directive in column 1. (ORG)
                      00051 ORG 0x0000
0000   0000           00052     NOP
0001   2???           00053     GOTO SETUP
                      00054 ;*******************************************************************************
Warning[205]: Found directive in column 1. (ORG)
                      00055 ORG 0x0004
Warning[207]: Found label after column 1. (PUSH)
0004                  00056     PUSH:
0004   00A0           00057         movwf   w_temp            ; save off current W register contents
0005   0803           00058         movf    STATUS,w          ; move status register into W register
0006   1283           00059         bcf     STATUS,RP0        ; ensure file register bank set to 0
0007   00A1           00060         movwf   status_temp       ; save off contents of STATUS register
0008   080A           00061         movf    PCLATH,w          ; move pclath register into w register
0009   00A2           00062         movwf   pclath_temp       ; save off contents of PCLATH register
                      00063 
                      00064 ;********TMR0 INTERRUPTION**************************************************
000A   1D0B           00065         BTFSS INTCON, T0IF        ; Check T0IF.
000B   2???           00066         GOTO RBI                  ; Exit interrupt vector. 
000C   110B           00067         BCF INTCON, T0IF
000D   30F8           00068         MOVLW .248                ; Pre-load TMR0
000E   0081           00069         MOVWF TMR0
                      00070         
Warning[207]: Found label after column 1. (COLUMN_COUNTER_CONTROL)
000F                  00071     COLUMN_COUNTER_CONTROL:
000F   08??           00072             MOVF column_counter, 0
0010   3C05           00073             SUBLW .5
0011   1D03           00074             BTFSS STATUS, Z
0012   2???           00075             GOTO COUNTER_INCREMENT
0013   2???           00076             GOTO COUNTER_RESET
Warning[207]: Found label after column 1. (COUNTER_INCREMENT)
0014                  00077             COUNTER_INCREMENT:
0014   0A??           00078                 INCF column_counter, 1
0015   2???           00079                 GOTO COLUMN_INDEX_CONTROL
Warning[207]: Found label after column 1. (COUNTER_RESET)
0016                  00080             COUNTER_RESET:
0016   3001           00081                 MOVLW .1
0017   00??           00082                 MOVWF column_counter
                      00083                 
Warning[207]: Found label after column 1. (COLUMN_INDEX_CONTROL)
0018                  00084         COLUMN_INDEX_CONTROL:
0018   08??           00085             MOVF column_index, 0
0019   3C3C           00086             SUBLW .60
MPASM 5.65                         RELOJ.ASM   3-7-2016  14:41:07         PAGE  3


LOC  OBJECT CODE     LINE SOURCE TEXT
  VALUE

001A   1D03           00087             BTFSS STATUS, Z
001B   2???           00088             GOTO INDEX_INCREMENT
001C   2???           00089             GOTO INDEX_RESET
Warning[207]: Found label after column 1. (INDEX_INCREMENT)
001D                  00090             INDEX_INCREMENT:
001D   0A??           00091                 INCF column_index, 1
001E   2???           00092                 GOTO SECONDS_CONTROL
Warning[207]: Found label after column 1. (INDEX_RESET)
001F                  00093             INDEX_RESET:
001F   3001           00094                 MOVLW .1
0020   00??           00095                 MOVWF column_index
                      00096 
Warning[207]: Found label after column 1. (SECONDS_CONTROL)
0021                  00097         SECONDS_CONTROL:
0021   0B??           00098         DECFSZ delay_counter, 1   ; 1 second has passed.
0022   2???           00099         GOTO POP
                      00100         
0023   30C8           00101         MOVLW .200                  ; For 1 second delay.
0024   00??           00102         MOVWF delay_counter
0025   0B??           00103         DECFSZ delay_counter_1, 1
0026   2???           00104         GOTO POP
                      00105         
0027   3005           00106         MOVLW .5
0028   00??           00107         MOVWF delay_counter_1
0029   2???           00108         GOTO SECONDS_INCREMENT
                      00109         
Warning[207]: Found label after column 1. (RBI)
002A                  00110     RBI:
002A   1C0B           00111         BTFSS INTCON, RBIF          ; Interrupt not caused by button press.
002B   2???           00112         GOTO POP
002C   100B           00113         BCF INTCON, RBIF            ; Interrupt flag clear.
Warning[207]: Found label after column 1. (CHECK_MODE)
002D                  00114         CHECK_MODE:
                      00115             ;BTFSC PORTB, RB6
                      00116             ;GOTO CHECK_ALARM_STATE
                      00117             ;BTFSC alarm_status, 0          ; Check clock mode (Alarm Set/Run)          
                      00118             ;GOTO alarm_setting 
                      00119             ;BSF alarm_status, 0                    ; Enable alarm setting.
                      00120             ;GOTO POP
                      00121             ;alarm_setting:
                      00122             ;BCF alarm_status, 0                    ; Enable run mode.
                      00123             ;GOTO POP
                      00124         
Warning[207]: Found label after column 1. (CHECK_ANIMATION_STATE)
002D                  00125         CHECK_ANIMATION_STATE:
002D   1B86           00126             BTFSC PORTB, RB7        
002E   2???           00127             GOTO CHECK_MINUTES_INC
Warning[207]: Found label after column 1. (ANIMATION_DELAY)
002F                  00128         ANIMATION_DELAY:
002F   30FF           00129             MOVLW .255
0030   00??           00130             MOVWF animation_delay_counter
0031   00??           00131             MOVWF animation_delay_counter_1
Warning[207]: Found label after column 1. (ANIMATION_DELAY_LOOP)
MPASM 5.65                         RELOJ.ASM   3-7-2016  14:41:07         PAGE  4


LOC  OBJECT CODE     LINE SOURCE TEXT
  VALUE

0032                  00132             ANIMATION_DELAY_LOOP:
Message[305]: Using default destination of 1 (file).
0032   0B??           00133             DECFSZ animation_delay_counter
0033   2???           00134             GOTO ANIMATION_DELAY_LOOP
Message[305]: Using default destination of 1 (file).
0034   0B??           00135             DECFSZ animation_delay_counter_1
0035   2???           00136             GOTO ANIMATION_DELAY_LOOP
                      00137             
0036   1800           00138             BTFSC animation, 0
0037   2???           00139             GOTO ANIMATING
0038   1400           00140             BSF animation, 0
0039   2???           00141             GOTO CHECK_MINUTES_INC
Warning[207]: Found label after column 1. (ANIMATING)
003A                  00142             ANIMATING:
003A   1000           00143             BCF animation, 0
                      00144 
                      00145             
Warning[207]: Found label after column 1. (CHECK_MINUTES_INC)
003B                  00146         CHECK_MINUTES_INC:
003B   1E86           00147             BTFSS PORTB, RB5
003C   2???           00148             GOTO MINUTES_DELAY
Warning[207]: Found label after column 1. (CHECK_HOURS_INC)
003D                  00149         CHECK_HOURS_INC:  
003D   1F06           00150             BTFSS PORTB, RB6
003E   2???           00151             GOTO HOURS_DELAY
003F   2???           00152             GOTO POP
                      00153                 
Warning[207]: Found label after column 1. (SECONDS_DISPLAY)
0040                  00154         SECONDS_DISPLAY:
                      00155         ;    BTFSC PORTA,0              
                      00156          ;   GOTO second_hand_on        
                      00157           ;  BSF PORTA,0                        ; Apaga el LED
                      00158            ; GOTO SECONDS_INCREMENT
                      00159             ;second_hand_on:
                      00160              ;   BCF PORTA,0                    ; Enciende el LED 
                      00161         
Warning[207]: Found label after column 1. (SECONDS_INCREMENT)
0040                  00162         SECONDS_INCREMENT:
0040   0A??           00163             INCF seconds, f                     ; Circular increment of seconds.
0041   08??           00164             MOVF seconds, 0
0042   3C3C           00165             SUBLW .60
0043   1D03           00166             BTFSS STATUS, Z
0044   2???           00167             GOTO POP
0045   3000           00168             MOVLW .0
0046   00??           00169             MOVWF seconds
0047   2???           00170             GOTO MINUTES_INCREMENT
                      00171 
Warning[207]: Found label after column 1. (MINUTES_DISPLAY)
0048                  00172         MINUTES_DISPLAY:
                      00173             ;BTFSC PORTA, 1
                      00174             ;GOTO minute_hand_on
                      00175             ;BSF PORTA, 1
                      00176             ;GOTO MINUTES_INCREMENT
MPASM 5.65                         RELOJ.ASM   3-7-2016  14:41:07         PAGE  5


LOC  OBJECT CODE     LINE SOURCE TEXT
  VALUE

                      00177             ;minute_hand_on:
                      00178         ;       BCF PORTA, 1
                      00179                 
Warning[207]: Found label after column 1. (MINUTES_DELAY)
0048                  00180         MINUTES_DELAY:
0048   30FF           00181             MOVLW .255
0049   00??           00182             MOVWF minutes_delay_counter
004A   00??           00183             MOVWF minutes_delay_counter_1
Warning[207]: Found label after column 1. (MINUTES_DELAY_LOOP)
004B                  00184             MINUTES_DELAY_LOOP:
Message[305]: Using default destination of 1 (file).
004B   0B??           00185             DECFSZ minutes_delay_counter
004C   2???           00186             GOTO MINUTES_DELAY_LOOP
Message[305]: Using default destination of 1 (file).
004D   0B??           00187             DECFSZ minutes_delay_counter_1
004E   2???           00188             GOTO MINUTES_DELAY_LOOP
                      00189             
Warning[207]: Found label after column 1. (MINUTES_INCREMENT)
004F                  00190         MINUTES_INCREMENT:
004F   0A??           00191             INCF minutes, f                     ; Circular increment of minutes.        
0050   08??           00192             MOVF minutes, 0
0051   3C3C           00193             SUBLW .60
0052   1D03           00194             BTFSS STATUS, Z
0053   2???           00195             GOTO POP
0054   3000           00196             MOVLW .0
0055   00??           00197             MOVWF minutes
0056   2???           00198             GOTO HOURS_INCREMENT
                      00199             
Warning[207]: Found label after column 1. (HOURS_DISPLAY)
0057                  00200         HOURS_DISPLAY:
                      00201          ;   BTFSC PORTA, 2
                      00202           ;  GOTO hour_hand_on
                      00203            ; BSF PORTA, 2
                      00204             ;GOTO HOURS_INCREMENT
                      00205             ;hour_hand_on:
                      00206         ;       BCF PORTA, 2
                      00207         
Warning[207]: Found label after column 1. (HOURS_DELAY)
0057                  00208         HOURS_DELAY:
0057   30FF           00209             MOVLW .255
0058   00??           00210             MOVWF hours_delay_counter
0059   00??           00211             MOVWF hours_delay_counter_1
Warning[207]: Found label after column 1. (HOURS_DELAY_LOOP)
005A                  00212             HOURS_DELAY_LOOP:
Message[305]: Using default destination of 1 (file).
005A   0B??           00213             DECFSZ hours_delay_counter
005B   2???           00214             GOTO HOURS_DELAY_LOOP
Message[305]: Using default destination of 1 (file).
005C   0B??           00215             DECFSZ hours_delay_counter_1
005D   2???           00216             GOTO HOURS_DELAY_LOOP
                      00217             
Warning[207]: Found label after column 1. (HOURS_INCREMENT)
005E                  00218         HOURS_INCREMENT:
MPASM 5.65                         RELOJ.ASM   3-7-2016  14:41:07         PAGE  6


LOC  OBJECT CODE     LINE SOURCE TEXT
  VALUE

005E   0A??           00219             INCF hours, f                       ; Circular increment of hours.
005F   08??           00220             MOVF hours, 0
0060   3C18           00221             SUBLW .24
0061   1D03           00222             BTFSS STATUS, Z
0062   2???           00223             GOTO POP
0063   3000           00224             MOVLW .0
0064   00??           00225             MOVWF hours
0065   2???           00226             GOTO POP
                      00227 ;*******EXIT INTERRUPT VECTOR***********************************************        
Warning[207]: Found label after column 1. (POP)
0066                  00228     POP:
0066   1283           00229         bcf     STATUS,RP0        ; ensure file register bank set to 0
0067   0822           00230         movf    pclath_temp,w     ; retrieve copy of PCLATH register
0068   008A           00231         movwf   PCLATH            ; restore pre-isr PCLATH register contents
0069   0821           00232         movf    status_temp,w     ; retrieve copy of STATUS register
006A   0083           00233         movwf   STATUS            ; restore pre-isr STATUS register contents
006B   0EA0           00234         swapf   w_temp,f
006C   0E20           00235         swapf   w_temp,w          ; restore pre-isr W register contents
006D   0009           00236         RETFIE
                      00237 ;*******************************************************************************
                      00238     
006E                  00239 SETUP:
006E   1683           00240     BSF STATUS, RP0             ; Bank select 1
Message[302]: Register in operand not in bank 0.  Ensure that bank bits are correct.
006F   0185           00241     CLRF TRISA       
Message[302]: Register in operand not in bank 0.  Ensure that bank bits are correct.
0070   0186           00242     CLRF TRISB       
0071   30E0           00243     MOVLW b'11100000'
Message[302]: Register in operand not in bank 0.  Ensure that bank bits are correct.
0072   0086           00244     MOVWF TRISB
Message[302]: Register in operand not in bank 0.  Ensure that bank bits are correct.
0073   0185           00245     CLRF TRISA
0074   30A8           00246     MOVLW b'10101000'           ; Enables interrupts from TMR0 an RB (IOC).
0075   008B           00247     MOVWF INTCON
                      00248             
Message[302]: Register in operand not in bank 0.  Ensure that bank bits are correct.
0076   1281           00249     BCF OPTION_REG, T0CS        ; TMR0 CLOCK SOURCE: INTERNAL INSTRUCTION CYCLE CLOCK
Message[302]: Register in operand not in bank 0.  Ensure that bank bits are correct.
0077   1181           00250     BCF OPTION_REG, PSA         ; PRESCALER ASSIGNMENT: TIMER0 MODULE
Message[302]: Register in operand not in bank 0.  Ensure that bank bits are correct.
0078   1501           00251     BSF OPTION_REG, PS2         ; PRESCALER RATE: 1:256
Message[302]: Register in operand not in bank 0.  Ensure that bank bits are correct.
0079   1481           00252     BSF OPTION_REG, PS1         ; PRESCALER RATE: 1:256
Message[302]: Register in operand not in bank 0.  Ensure that bank bits are correct.
007A   1401           00253     BSF OPTION_REG, PS0         ; PRESCALER RATE: 1:256
                      00254 
007B   1283           00255     BCF STATUS, RP0             ; bank select 1 
007C   0185           00256     CLRF PORTA                  
007D   0186           00257     CLRF PORTB
                      00258     
007E   30C8           00259     MOVLW .200                  ; For TMR0 delay of 1000ms 
007F   00??           00260     MOVWF delay_counter
0080   3005           00261     MOVLW .5
MPASM 5.65                         RELOJ.ASM   3-7-2016  14:41:07         PAGE  7


LOC  OBJECT CODE     LINE SOURCE TEXT
  VALUE

0081   00??           00262     MOVWF delay_counter_1
                      00263     
0082   302D           00264     MOVLW .45                   ; Initial time.
0083   00??           00265     MOVWF seconds
0084   3017           00266     MOVLW .23
0085   00??           00267     MOVWF minutes
0086   3001           00268     MOVLW .1
0087   00??           00269     MOVWF hours
                      00270     
0088   3001           00271     MOVLW .1
0089   00??           00272     MOVWF column_counter
008A   00??           00273     MOVWF column_index
                      00274     
008B   01??           00275     CLRF animation
008C   01??           00276     CLRF xor_var
008D   01??           00277     CLRF stripe_1
008E   01??           00278     CLRF stripe_2
008F   01??           00279     CLRF stripe_3
0090   01??           00280     CLRF stripe_4
0091   01??           00281     CLRF space_stripe
0092   01??           00282     CLRF alarm_minutes
0093   01??           00283     CLRF alarm_hours
0094   01??           00284     CLRF alarm_status           ;To determine whether alarm is ON/OFF or in SET mode.
                      00285                                 ;  Bit  |   State   |   Mode
                      00286                                 ;   0   |     S     |   Set
                      00287                                 ;       |     C     |   Run
                      00288                                 ;   1   |     S     |   Alarm ON
                      00289                                 ;       |     C     |   Alarm OFF
0095                  00290 MAINPROGRAM:
0095   1800           00291     BTFSC animation, 0
0096   2???           00292     GOTO ANIMATION_DISPLAY
0097   2???           00293     CALL SPLIT_SECONDS          ; Call to get HH:MM:SS
0098   2???           00294     CALL SPLIT_MINUTES
0099   2???           00295     CALL SPLIT_HOURS
                      00296     ;CALL CHECK_ALARM
                      00297     
Warning[207]: Found label after column 1. (CHECK_HOURS_T)
009A                  00298    CHECK_HOURS_T:
009A   08??           00299    MOVF column_index, 0
009B   3C04           00300    SUBLW .4
009C   1803           00301    BTFSC STATUS, C
009D   2???           00302    CALL display_hours_t
                      00303    
009E   08??           00304    MOVF column_index, 0
009F   3C05           00305    SUBLW .5
00A0   1D03           00306    BTFSS STATUS, Z
00A1   2???           00307    GOTO CHECK_HOURS_U
00A2   0185           00308    CLRF PORTA
00A3   0186           00309    CLRF PORTB 
00A4   2???           00310    GOTO EXIT
                      00311    
                      00312    ;INDEX=5
                      00313    ;    clrf porta
MPASM 5.65                         RELOJ.ASM   3-7-2016  14:41:07         PAGE  8


LOC  OBJECT CODE     LINE SOURCE TEXT
  VALUE

                      00314    ;    CLRF PORTB
                      00315    ;    GOTO EXIT
                      00316    
Warning[207]: Found label after column 1. (CHECK_HOURS_U)
00A5                  00317    CHECK_HOURS_U:
00A5   08??           00318    MOVF column_index, 0
00A6   3C09           00319    SUBLW .9
00A7   1803           00320    BTFSC STATUS, C
00A8   2???           00321    GOTO SMALLER_EQUAL_9
00A9   2???           00322    GOTO EMPTY_SPACE_2
Warning[207]: Found label after column 1. (SMALLER_EQUAL_9)
00AA                  00323    SMALLER_EQUAL_9:
00AA   08??           00324    MOVF column_index, 0
00AB   3C06           00325    SUBLW .6
00AC   1803           00326    BTFSC STATUS, C
00AD   2???           00327    GOTO EQUAL_6
00AE   2???           00328    CALL display_hours_u
00AF   2???           00329    GOTO EMPTY_SPACE_2
Warning[207]: Found label after column 1. (EQUAL_6)
00B0                  00330    EQUAL_6:
00B0   08??           00331    MOVF column_index, 0
00B1   3C06           00332    SUBLW .6
00B2   1D03           00333    BTFSS STATUS, Z
00B3   2???           00334    GOTO EMPTY_SPACE_2
00B4   2???           00335    CALL display_hours_u
                      00336    
                      00337    
Warning[207]: Found label after column 1. (EMPTY_SPACE_2)
00B5                  00338    EMPTY_SPACE_2:   
00B5   08??           00339    MOVF column_index, 0
00B6   3C0A           00340    SUBLW .10
00B7   1D03           00341    BTFSS STATUS, Z
00B8   2???           00342    GOTO CHECK_MINUTES_T
00B9   0185           00343    CLRF PORTA
00BA   0186           00344    CLRF PORTB 
00BB   2???           00345    GOTO EXIT
                      00346    
Warning[207]: Found label after column 1. (CHECK_MINUTES_T)
00BC                  00347    CHECK_MINUTES_T:
00BC   08??           00348     MOVF column_index, 0
00BD   3C0E           00349     SUBLW .14
00BE   1803           00350     BTFSC STATUS, C
00BF   2???           00351     GOTO SMALLER_EQUAL_14
00C0   2???           00352     GOTO EMPTY_SPACE_3
Warning[207]: Found label after column 1. (SMALLER_EQUAL_14)
00C1                  00353    SMALLER_EQUAL_14:
00C1   08??           00354     MOVF column_index, 0
00C2   3C0B           00355     SUBLW .11
00C3   1803           00356     BTFSC STATUS, C
00C4   2???           00357     GOTO EQUAL_11
00C5   2???           00358     CALL display_minutes_t
00C6   2???           00359     GOTO EMPTY_SPACE_3
Warning[207]: Found label after column 1. (EQUAL_11)
MPASM 5.65                         RELOJ.ASM   3-7-2016  14:41:07         PAGE  9


LOC  OBJECT CODE     LINE SOURCE TEXT
  VALUE

00C7                  00360    EQUAL_11:
00C7   08??           00361     MOVF column_index, 0
00C8   3C0B           00362     SUBLW .11
00C9   1D03           00363     BTFSS STATUS, Z
00CA   2???           00364     GOTO EMPTY_SPACE_3
00CB   2???           00365     CALL display_minutes_t
                      00366    
Warning[207]: Found label after column 1. (EMPTY_SPACE_3)
00CC                  00367    EMPTY_SPACE_3:
00CC   08??           00368    MOVF column_index, 0
00CD   3C0F           00369    SUBLW .15
00CE   1D03           00370    BTFSS STATUS, Z
00CF   2???           00371    GOTO CHECK_MINUTES_U
00D0   0185           00372    CLRF PORTA
00D1   0186           00373    CLRF PORTB 
00D2   2???           00374    GOTO EXIT
                      00375    
Warning[207]: Found label after column 1. (CHECK_MINUTES_U)
00D3                  00376    CHECK_MINUTES_U:
00D3   08??           00377     MOVF column_index, 0
00D4   3C13           00378     SUBLW .19
00D5   1803           00379     BTFSC STATUS, C
00D6   2???           00380     GOTO SMALLER_EQUAL_19
00D7   2???           00381     GOTO EMPTY_SPACE_4
Warning[207]: Found label after column 1. (SMALLER_EQUAL_19)
00D8                  00382    SMALLER_EQUAL_19:
00D8   08??           00383     MOVF column_index, 0
00D9   3C10           00384     SUBLW .16
00DA   1803           00385     BTFSC STATUS, C
00DB   2???           00386     GOTO EQUAL_16
00DC   2???           00387     CALL display_minutes_u
00DD   2???           00388     GOTO EMPTY_SPACE_4
Warning[207]: Found label after column 1. (EQUAL_16)
00DE                  00389    EQUAL_16:
00DE   08??           00390     MOVF column_index, 0
00DF   3C10           00391     SUBLW .16
00E0   1D03           00392     BTFSS STATUS, Z
00E1   2???           00393     GOTO EMPTY_SPACE_4
00E2   2???           00394     CALL display_minutes_u
                      00395    
Warning[207]: Found label after column 1. (EMPTY_SPACE_4)
00E3                  00396    EMPTY_SPACE_4:
00E3   08??           00397    MOVF column_index, 0
00E4   3C14           00398    SUBLW .20
00E5   1D03           00399    BTFSS STATUS, Z
00E6   2???           00400    GOTO CHECK_SECONDS_T
00E7   0185           00401    CLRF PORTA
00E8   0186           00402    CLRF PORTB 
00E9   2???           00403    GOTO EXIT
                      00404    
Warning[207]: Found label after column 1. (CHECK_SECONDS_T)
00EA                  00405    CHECK_SECONDS_T:
00EA   08??           00406     MOVF column_index, 0
MPASM 5.65                         RELOJ.ASM   3-7-2016  14:41:07         PAGE 10


LOC  OBJECT CODE     LINE SOURCE TEXT
  VALUE

00EB   3C18           00407     SUBLW .24
00EC   1803           00408     BTFSC STATUS, C
00ED   2???           00409     GOTO SMALLER_EQUAL_24
00EE   2???           00410     GOTO EMPTY_SPACE_5
Warning[207]: Found label after column 1. (SMALLER_EQUAL_24)
00EF                  00411    SMALLER_EQUAL_24:
00EF   08??           00412     MOVF column_index, 0
00F0   3C15           00413     SUBLW .21
00F1   1803           00414     BTFSC STATUS, C
00F2   2???           00415     GOTO EQUAL_21
00F3   2???           00416     CALL display_seconds_t
00F4   2???           00417     GOTO EMPTY_SPACE_5
Warning[207]: Found label after column 1. (EQUAL_21)
00F5                  00418    EQUAL_21:
00F5   08??           00419     MOVF column_index, 0
00F6   3C15           00420     SUBLW .21
00F7   1D03           00421     BTFSS STATUS, Z
00F8   2???           00422     GOTO EMPTY_SPACE_5
00F9   2???           00423     CALL display_seconds_t
                      00424     
Warning[207]: Found label after column 1. (EMPTY_SPACE_5)
00FA                  00425    EMPTY_SPACE_5:
00FA   08??           00426    MOVF column_index, 0
00FB   3C19           00427    SUBLW .25
00FC   1D03           00428    BTFSS STATUS, Z
00FD   2???           00429    GOTO CHECK_SECONDS_U
00FE   0185           00430    CLRF PORTA
00FF   0186           00431    CLRF PORTB 
0100   2???           00432    GOTO EXIT
                      00433    
Warning[207]: Found label after column 1. (CHECK_SECONDS_U)
0101                  00434    CHECK_SECONDS_U:
0101   08??           00435     MOVF column_index, 0
0102   3C1D           00436     SUBLW .29
0103   1803           00437     BTFSC STATUS, C
0104   2???           00438     GOTO SMALLER_EQUAL_29
0105   2???           00439     GOTO EMPTY_SPACE_6
Warning[207]: Found label after column 1. (SMALLER_EQUAL_29)
0106                  00440    SMALLER_EQUAL_29:
0106   08??           00441     MOVF column_index, 0
0107   3C1A           00442     SUBLW .26
0108   1803           00443     BTFSC STATUS, C
0109   2???           00444     GOTO EQUAL_26
010A   2???           00445     CALL display_seconds_u
010B   2???           00446     GOTO EMPTY_SPACE_6
Warning[207]: Found label after column 1. (EQUAL_26)
010C                  00447    EQUAL_26:
010C   08??           00448     MOVF column_index, 0
010D   3C1A           00449     SUBLW .26
010E   1D03           00450     BTFSS STATUS, Z
010F   2???           00451     GOTO EMPTY_SPACE_6
0110   2???           00452     CALL display_seconds_u
                      00453    
MPASM 5.65                         RELOJ.ASM   3-7-2016  14:41:07         PAGE 11


LOC  OBJECT CODE     LINE SOURCE TEXT
  VALUE

Warning[207]: Found label after column 1. (EMPTY_SPACE_6)
0111                  00454    EMPTY_SPACE_6:
0111   08??           00455    MOVF column_index, 0
0112   3C1E           00456    SUBLW .30
0113   1803           00457    BTFSC STATUS, C
0114   2???           00458    GOTO EXIT
                      00459    
Warning[207]: Found label after column 1. (HALF_OFF)
0115                  00460    HALF_OFF:
0115   0185           00461     CLRF PORTA
0116   0186           00462     CLRF PORTB
0117   2???           00463    GOTO EXIT
Warning[207]: Found label after column 1. (ANIMATION_DISPLAY)
0118                  00464     ANIMATION_DISPLAY:
0118   30FF           00465         MOVLW .255
0119   0085           00466         MOVWF PORTA
011A   0086           00467         MOVWF PORTB
011B                  00468 EXIT:
Warning[203]: Found opcode in column 1. (GOTO)
011B   2???           00469 GOTO MAINPROGRAM                ; Unconditional loop.
                      00470     
011C                  00471 SPLIT_SECONDS:                          ; Splits digits.
011C   08??           00472     MOVF seconds, 0         
011D   00??           00473     MOVWF seconds_u
011E   01??           00474     CLRF seconds_t
Warning[207]: Found label after column 1. (SPLIT_SECONDS_LOOP)
011F                  00475     SPLIT_SECONDS_LOOP:                 ; Succesive substraction algorithm.
011F   300A           00476         MOVLW .10
0120   02??           00477         SUBWF seconds_u, f
0121   1903           00478         BTFSC STATUS, Z                 ; Check for zero in result. 
0122   2???           00479         GOTO SPLIT_SECONDS_ZERO
0123   1C03           00480         BTFSS STATUS, C                 ; Check for underflow.
0124   2???           00481         GOTO SPLIT_SECONDS_BORROW
Message[305]: Using default destination of 1 (file).
0125   0A??           00482         INCF seconds_t                  ; If none of the above -> increment.
0126   2???           00483         GOTO SPLIT_SECONDS_LOOP         ; Loop.
Warning[207]: Found label after column 1. (SPLIT_SECONDS_ZERO)
0127                  00484     SPLIT_SECONDS_ZERO:
0127   0A??           00485         INCF seconds_t, f               ; Increment and exit.
0128   0008           00486         RETURN
Warning[207]: Found label after column 1. (SPLIT_SECONDS_BORROW)
0129                  00487     SPLIT_SECONDS_BORROW:
0129   300A           00488         MOVLW .10                       ; Restore original value and exit.
012A   07??           00489         ADDWF seconds_u, f
012B   0008           00490         RETURN
                      00491 
012C                  00492 SPLIT_MINUTES:
012C   08??           00493     MOVF minutes, 0
012D   00??           00494     MOVWF minutes_u
012E   01??           00495     CLRF minutes_t
Warning[207]: Found label after column 1. (SPLIT_MINUTES_LOOP)
012F                  00496     SPLIT_MINUTES_LOOP:
012F   300A           00497         MOVLW .10
MPASM 5.65                         RELOJ.ASM   3-7-2016  14:41:07         PAGE 12


LOC  OBJECT CODE     LINE SOURCE TEXT
  VALUE

0130   02??           00498         SUBWF minutes_u, f
0131   1903           00499         BTFSC STATUS, Z
0132   2???           00500         GOTO SPLIT_MINUTES_ZERO
0133   1C03           00501         BTFSS STATUS, C
0134   2???           00502         GOTO SPLIT_MINUTES_BORROW
Message[305]: Using default destination of 1 (file).
0135   0A??           00503         INCF minutes_t
0136   2???           00504         GOTO SPLIT_MINUTES_LOOP
Warning[207]: Found label after column 1. (SPLIT_MINUTES_ZERO)
0137                  00505     SPLIT_MINUTES_ZERO:
0137   0A??           00506         INCF minutes_t, f 
0138   0008           00507         RETURN
Warning[207]: Found label after column 1. (SPLIT_MINUTES_BORROW)
0139                  00508     SPLIT_MINUTES_BORROW:
0139   300A           00509         MOVLW .10
013A   07??           00510         ADDWF minutes_u, f
013B   0008           00511         RETURN
                      00512         
013C                  00513 SPLIT_HOURS:
013C   08??           00514     MOVF hours, 0
013D   00??           00515     MOVWF hours_u
013E   01??           00516     CLRF hours_t
Warning[207]: Found label after column 1. (SPLIT_HOURS_LOOP)
013F                  00517     SPLIT_HOURS_LOOP:
013F   300A           00518         MOVLW .10
0140   02??           00519         SUBWF hours_u, f
0141   1903           00520         BTFSC STATUS, Z
0142   2???           00521         GOTO SPLIT_HOURS_ZERO
0143   1C03           00522         BTFSS STATUS, C
0144   2???           00523         GOTO SPLIT_HOURS_BORROW
Message[305]: Using default destination of 1 (file).
0145   0A??           00524         INCF hours_t
0146   2???           00525         GOTO SPLIT_HOURS_LOOP
Warning[207]: Found label after column 1. (SPLIT_HOURS_ZERO)
0147                  00526     SPLIT_HOURS_ZERO:
0147   0A??           00527         INCF hours_t, f 
0148   0008           00528         RETURN
Warning[207]: Found label after column 1. (SPLIT_HOURS_BORROW)
0149                  00529     SPLIT_HOURS_BORROW:
0149   300A           00530         MOVLW .10
014A   07??           00531         ADDWF hours_u, f
014B   0008           00532         RETURN
                      00533 
014C                  00534 display_hours_t:
014C   08??           00535     MOVF hours_t, 0
014D   00??           00536     MOVWF xor_var
014E   2???           00537     CALL SWITCHCASE
014F   08??           00538     MOVF column_counter, 0
0150   3C01           00539     SUBLW .1
0151   1D03           00540     BTFSS STATUS, Z
0152   2???           00541     GOTO hours_t_2
Warning[207]: Found label after column 1. (hours_t_1)
0153                  00542     hours_t_1:
MPASM 5.65                         RELOJ.ASM   3-7-2016  14:41:07         PAGE 13


LOC  OBJECT CODE     LINE SOURCE TEXT
  VALUE

0153   08??           00543         MOVF stripe_1, 0
0154   390F           00544         ANDLW b'00001111'
0155   0085           00545         MOVWF PORTA
0156   08??           00546         MOVF stripe_1, 0
0157   39F0           00547         ANDLW b'11110000'
0158   00??           00548         MOVWF msb
0159   0E??           00549         SWAPF msb, 0
015A   0086           00550         MOVWF PORTB     
015B   0008           00551         RETURN
Warning[207]: Found label after column 1. (hours_t_2)
015C                  00552     hours_t_2:
015C   08??           00553         MOVF column_counter, 0
015D   3C02           00554         SUBLW .2
015E   1D03           00555         BTFSS STATUS, Z
015F   2???           00556         GOTO hours_t_3
0160   08??           00557         MOVF stripe_2, 0
0161   390F           00558         ANDLW b'00001111'
0162   0085           00559         MOVWF PORTA
0163   08??           00560         MOVF stripe_2, 0
0164   39F0           00561         ANDLW b'11110000'
0165   00??           00562         MOVWF msb
0166   0E??           00563         SWAPF msb, 0
0167   0086           00564         MOVWF PORTB     
0168   0008           00565         RETURN
Warning[207]: Found label after column 1. (hours_t_3)
0169                  00566     hours_t_3:
0169   08??           00567         MOVF column_counter, 0
016A   3C03           00568         SUBLW .3
016B   1D03           00569         BTFSS STATUS, Z
016C   2???           00570         GOTO hours_t_4
016D   08??           00571         MOVF stripe_3, 0
016E   390F           00572         ANDLW b'00001111'
016F   0085           00573         MOVWF PORTA
0170   08??           00574         MOVF stripe_3, 0
0171   39F0           00575         ANDLW b'11110000'
0172   00??           00576         MOVWF msb
0173   0E??           00577         SWAPF msb, 0
0174   0086           00578         MOVWF PORTB
0175   0008           00579         RETURN
Warning[207]: Found label after column 1. (hours_t_4)
0176                  00580     hours_t_4:
0176   08??           00581         MOVF column_counter, 0
0177   3C04           00582         SUBLW .4
0178   1D03           00583         BTFSS STATUS, Z
0179   0008           00584         RETURN
017A   08??           00585         MOVF stripe_4, 0
017B   390F           00586         ANDLW b'00001111'
017C   0085           00587         MOVWF PORTA
017D   08??           00588         MOVF stripe_4, 0
017E   39F0           00589         ANDLW b'11110000'
017F   00??           00590         MOVWF msb
0180   0E??           00591         SWAPF msb, 0
0181   0086           00592         MOVWF PORTB
MPASM 5.65                         RELOJ.ASM   3-7-2016  14:41:07         PAGE 14


LOC  OBJECT CODE     LINE SOURCE TEXT
  VALUE

Warning[203]: Found opcode in column 1. (RETURN)
0182   0008           00593 RETURN
                      00594 
0183                  00595 display_hours_u:
0183   08??           00596     MOVF hours_u, 0
0184   00??           00597     MOVWF xor_var
0185   2???           00598     CALL SWITCHCASE
0186   08??           00599     MOVF column_counter, 0
0187   3C01           00600     SUBLW .1
0188   1D03           00601     BTFSS STATUS, Z
0189   2???           00602     GOTO hours_u_2
Warning[207]: Found label after column 1. (hours_u_1)
018A                  00603     hours_u_1:
018A   08??           00604         MOVF stripe_1, 0
018B   390F           00605         ANDLW b'00001111'
018C   0085           00606         MOVWF PORTA
018D   08??           00607         MOVF stripe_1, 0
018E   39F0           00608         ANDLW b'11110000'
018F   00??           00609         MOVWF msb
0190   0E??           00610         SWAPF msb, 0
0191   0086           00611         MOVWF PORTB     
0192   0008           00612         RETURN
Warning[207]: Found label after column 1. (hours_u_2)
0193                  00613     hours_u_2:
0193   08??           00614         MOVF column_counter, 0
0194   3C02           00615         SUBLW .2
0195   1D03           00616         BTFSS STATUS, Z
0196   2???           00617         GOTO hours_u_3
0197   08??           00618         MOVF stripe_2, 0
0198   390F           00619         ANDLW b'00001111'
0199   0085           00620         MOVWF PORTA
019A   08??           00621         MOVF stripe_2, 0
019B   39F0           00622         ANDLW b'11110000'
019C   00??           00623         MOVWF msb
019D   0E??           00624         SWAPF msb, 0
019E   0086           00625         MOVWF PORTB     
019F   0008           00626         RETURN
Warning[207]: Found label after column 1. (hours_u_3)
01A0                  00627     hours_u_3:
01A0   08??           00628         MOVF column_counter, 0
01A1   3C03           00629         SUBLW .3
01A2   1D03           00630         BTFSS STATUS, Z
01A3   2???           00631         GOTO hours_u_4
01A4   08??           00632         MOVF stripe_3, 0
01A5   390F           00633         ANDLW b'00001111'
01A6   0085           00634         MOVWF PORTA
01A7   08??           00635         MOVF stripe_3, 0
01A8   39F0           00636         ANDLW b'11110000'
01A9   00??           00637         MOVWF msb
01AA   0E??           00638         SWAPF msb, 0
01AB   0086           00639         MOVWF PORTB
01AC   0008           00640         RETURN
Warning[207]: Found label after column 1. (hours_u_4)
MPASM 5.65                         RELOJ.ASM   3-7-2016  14:41:07         PAGE 15


LOC  OBJECT CODE     LINE SOURCE TEXT
  VALUE

01AD                  00641     hours_u_4:
01AD   08??           00642         MOVF column_counter, 0
01AE   3C04           00643         SUBLW .4
01AF   1D03           00644         BTFSS STATUS, Z
01B0   0008           00645         RETURN
01B1   08??           00646         MOVF stripe_4, 0
01B2   390F           00647         ANDLW b'00001111'
01B3   0085           00648         MOVWF PORTA
01B4   08??           00649         MOVF stripe_4, 0
01B5   39F0           00650         ANDLW b'11110000'
01B6   00??           00651         MOVWF msb
01B7   0E??           00652         SWAPF msb, 0
01B8   0086           00653         MOVWF PORTB
Warning[203]: Found opcode in column 1. (RETURN)
01B9   0008           00654 RETURN
                      00655         
01BA                  00656 display_minutes_t:
01BA   08??           00657     MOVF minutes_t, 0
01BB   00??           00658     MOVWF xor_var
01BC   2???           00659     CALL SWITCHCASE   
01BD   08??           00660     MOVF column_counter, 0
01BE   3C01           00661     SUBLW .1
01BF   1D03           00662     BTFSS STATUS, Z
01C0   2???           00663     GOTO minutes_t_2
Warning[207]: Found label after column 1. (minutes_t_1)
01C1                  00664     minutes_t_1:
01C1   08??           00665         MOVF stripe_1, 0
01C2   390F           00666         ANDLW b'00001111'
01C3   0085           00667         MOVWF PORTA
01C4   08??           00668         MOVF stripe_1, 0
01C5   39F0           00669         ANDLW b'11110000'
01C6   00??           00670         MOVWF msb
01C7   0E??           00671         SWAPF msb, 0
01C8   0086           00672         MOVWF PORTB     
01C9   0008           00673         RETURN
Warning[207]: Found label after column 1. (minutes_t_2)
01CA                  00674     minutes_t_2:
01CA   08??           00675         MOVF column_counter, 0
01CB   3C02           00676         SUBLW .2
01CC   1D03           00677         BTFSS STATUS, Z
01CD   2???           00678         GOTO minutes_t_3
01CE   08??           00679         MOVF stripe_2, 0
01CF   390F           00680         ANDLW b'00001111'
01D0   0085           00681         MOVWF PORTA
01D1   08??           00682         MOVF stripe_2, 0
01D2   39F0           00683         ANDLW b'11110000'
01D3   00??           00684         MOVWF msb
01D4   0E??           00685         SWAPF msb, 0
01D5   0086           00686         MOVWF PORTB     
01D6   0008           00687         RETURN
Warning[207]: Found label after column 1. (minutes_t_3)
01D7                  00688     minutes_t_3:
01D7   08??           00689         MOVF column_counter, 0
MPASM 5.65                         RELOJ.ASM   3-7-2016  14:41:07         PAGE 16


LOC  OBJECT CODE     LINE SOURCE TEXT
  VALUE

01D8   3C03           00690         SUBLW .3
01D9   1D03           00691         BTFSS STATUS, Z
01DA   2???           00692         GOTO minutes_t_4
01DB   08??           00693         MOVF stripe_3, 0
01DC   390F           00694         ANDLW b'00001111'
01DD   0085           00695         MOVWF PORTA
01DE   08??           00696         MOVF stripe_3, 0
01DF   39F0           00697         ANDLW b'11110000'
01E0   00??           00698         MOVWF msb
01E1   0E??           00699         SWAPF msb, 0
01E2   0086           00700         MOVWF PORTB
01E3   0008           00701         RETURN
Warning[207]: Found label after column 1. (minutes_t_4)
01E4                  00702     minutes_t_4:
01E4   08??           00703         MOVF column_counter, 0
01E5   3C04           00704         SUBLW .4
01E6   1D03           00705         BTFSS STATUS, Z
01E7   0008           00706         RETURN
01E8   08??           00707         MOVF stripe_4, 0
01E9   390F           00708         ANDLW b'00001111'
01EA   0085           00709         MOVWF PORTA
01EB   08??           00710         MOVF stripe_4, 0
01EC   39F0           00711         ANDLW b'11110000'
01ED   00??           00712         MOVWF msb
01EE   0E??           00713         SWAPF msb, 0
01EF   0086           00714         MOVWF PORTB
Warning[203]: Found opcode in column 1. (RETURN)
01F0   0008           00715 RETURN
                      00716 
01F1                  00717 display_minutes_u:
01F1   08??           00718     MOVF minutes_u, 0
01F2   00??           00719     MOVWF xor_var
01F3   2???           00720     CALL SWITCHCASE
01F4   08??           00721     MOVF column_counter, 0
01F5   3C01           00722     SUBLW .1
01F6   1D03           00723     BTFSS STATUS, Z
01F7   2???           00724     GOTO minutes_u_2
Warning[207]: Found label after column 1. (minutes_u_1)
01F8                  00725     minutes_u_1:
01F8   08??           00726         MOVF stripe_1, 0
01F9   390F           00727         ANDLW b'00001111'
01FA   0085           00728         MOVWF PORTA
01FB   08??           00729         MOVF stripe_1, 0
01FC   39F0           00730         ANDLW b'11110000'
01FD   00??           00731         MOVWF msb
01FE   0E??           00732         SWAPF msb, 0
01FF   0086           00733         MOVWF PORTB     
0200   0008           00734         RETURN
Warning[207]: Found label after column 1. (minutes_u_2)
0201                  00735     minutes_u_2:
0201   08??           00736         MOVF column_counter, 0
0202   3C02           00737         SUBLW .2
0203   1D03           00738         BTFSS STATUS, Z
MPASM 5.65                         RELOJ.ASM   3-7-2016  14:41:07         PAGE 17


LOC  OBJECT CODE     LINE SOURCE TEXT
  VALUE

0204   2???           00739         GOTO minutes_u_3
0205   08??           00740         MOVF stripe_2, 0
0206   390F           00741         ANDLW b'00001111'
0207   0085           00742         MOVWF PORTA
0208   08??           00743         MOVF stripe_2, 0
0209   39F0           00744         ANDLW b'11110000'
020A   00??           00745         MOVWF msb
020B   0E??           00746         SWAPF msb, 0
020C   0086           00747         MOVWF PORTB     
020D   0008           00748         RETURN
Warning[207]: Found label after column 1. (minutes_u_3)
020E                  00749     minutes_u_3:
020E   08??           00750         MOVF column_counter, 0
020F   3C03           00751         SUBLW .3
0210   1D03           00752         BTFSS STATUS, Z
0211   2???           00753         GOTO minutes_u_4
0212   08??           00754         MOVF stripe_3, 0
0213   390F           00755         ANDLW b'00001111'
0214   0085           00756         MOVWF PORTA
0215   08??           00757         MOVF stripe_3, 0
0216   39F0           00758         ANDLW b'11110000'
0217   00??           00759         MOVWF msb
0218   0E??           00760         SWAPF msb, 0
0219   0086           00761         MOVWF PORTB
021A   0008           00762         RETURN
Warning[207]: Found label after column 1. (minutes_u_4)
021B                  00763     minutes_u_4:
021B   08??           00764         MOVF column_counter, 0
021C   3C04           00765         SUBLW .4
021D   1D03           00766         BTFSS STATUS, Z
021E   0008           00767         RETURN
021F   08??           00768         MOVF stripe_4, 0
0220   390F           00769         ANDLW b'00001111'
0221   0085           00770         MOVWF PORTA
0222   08??           00771         MOVF stripe_4, 0
0223   39F0           00772         ANDLW b'11110000'
0224   00??           00773         MOVWF msb
0225   0E??           00774         SWAPF msb, 0
0226   0086           00775         MOVWF PORTB
Warning[203]: Found opcode in column 1. (RETURN)
0227   0008           00776 RETURN
                      00777         
0228                  00778 display_seconds_t:
0228   08??           00779     MOVF seconds_t, 0
0229   00??           00780     MOVWF xor_var
022A   2???           00781     CALL SWITCHCASE
022B   08??           00782     MOVF column_counter, 0
022C   3C01           00783     SUBLW .1
022D   1D03           00784     BTFSS STATUS, Z
022E   2???           00785     GOTO seconds_t_2
Warning[207]: Found label after column 1. (seconds_t_1)
022F                  00786     seconds_t_1:
022F   08??           00787         MOVF stripe_1, 0
MPASM 5.65                         RELOJ.ASM   3-7-2016  14:41:07         PAGE 18


LOC  OBJECT CODE     LINE SOURCE TEXT
  VALUE

0230   390F           00788         ANDLW b'00001111'
0231   0085           00789         MOVWF PORTA
0232   08??           00790         MOVF stripe_1, 0
0233   39F0           00791         ANDLW b'11110000'
0234   00??           00792         MOVWF msb
0235   0E??           00793         SWAPF msb, 0
0236   0086           00794         MOVWF PORTB     
0237   0008           00795         RETURN
Warning[207]: Found label after column 1. (seconds_t_2)
0238                  00796     seconds_t_2:
0238   08??           00797         MOVF column_counter, 0
0239   3C02           00798         SUBLW .2
023A   1D03           00799         BTFSS STATUS, Z
023B   2???           00800         GOTO seconds_t_3
023C   08??           00801         MOVF stripe_2, 0
023D   390F           00802         ANDLW b'00001111'
023E   0085           00803         MOVWF PORTA
023F   08??           00804         MOVF stripe_2, 0
0240   39F0           00805         ANDLW b'11110000'
0241   00??           00806         MOVWF msb
0242   0E??           00807         SWAPF msb, 0
0243   0086           00808         MOVWF PORTB     
0244   0008           00809         RETURN
Warning[207]: Found label after column 1. (seconds_t_3)
0245                  00810     seconds_t_3:
0245   08??           00811         MOVF column_counter, 0
0246   3C03           00812         SUBLW .3
0247   1D03           00813         BTFSS STATUS, Z
0248   2???           00814         GOTO seconds_t_4
0249   08??           00815         MOVF stripe_3, 0
024A   390F           00816         ANDLW b'00001111'
024B   0085           00817         MOVWF PORTA
024C   08??           00818         MOVF stripe_3, 0
024D   39F0           00819         ANDLW b'11110000'
024E   00??           00820         MOVWF msb
024F   0E??           00821         SWAPF msb, 0
0250   0086           00822         MOVWF PORTB
0251   0008           00823         RETURN
Warning[207]: Found label after column 1. (seconds_t_4)
0252                  00824     seconds_t_4:
0252   08??           00825         MOVF column_counter, 0
0253   3C04           00826         SUBLW .4
0254   1D03           00827         BTFSS STATUS, Z
0255   0008           00828         RETURN
0256   08??           00829         MOVF stripe_4, 0
0257   390F           00830         ANDLW b'00001111'
0258   0085           00831         MOVWF PORTA
0259   08??           00832         MOVF stripe_4, 0
025A   39F0           00833         ANDLW b'11110000'
025B   00??           00834         MOVWF msb
025C   0E??           00835         SWAPF msb, 0
025D   0086           00836         MOVWF PORTB
Warning[203]: Found opcode in column 1. (RETURN)
MPASM 5.65                         RELOJ.ASM   3-7-2016  14:41:07         PAGE 19


LOC  OBJECT CODE     LINE SOURCE TEXT
  VALUE

025E   0008           00837 RETURN
                      00838 
025F                  00839 display_seconds_u:
025F   08??           00840     MOVF seconds_u, 0
0260   00??           00841     MOVWF xor_var
0261   2???           00842     CALL SWITCHCASE
0262   08??           00843     MOVF column_counter, 0
0263   3C01           00844     SUBLW .1
0264   1D03           00845     BTFSS STATUS, Z
0265   2???           00846     GOTO seconds_u_2
Warning[207]: Found label after column 1. (seconds_u_1)
0266                  00847     seconds_u_1:
0266   08??           00848         MOVF stripe_1, 0
0267   390F           00849         ANDLW b'00001111'
0268   0085           00850         MOVWF PORTA
0269   08??           00851         MOVF stripe_1, 0
026A   39F0           00852         ANDLW b'11110000'
026B   00??           00853         MOVWF msb
026C   0E??           00854         SWAPF msb, 0
026D   0086           00855         MOVWF PORTB     
026E   0008           00856         RETURN
Warning[207]: Found label after column 1. (seconds_u_2)
026F                  00857     seconds_u_2:
026F   08??           00858         MOVF column_counter, 0
0270   3C02           00859         SUBLW .2
0271   1D03           00860         BTFSS STATUS, Z
0272   2???           00861         GOTO seconds_u_3
0273   08??           00862         MOVF stripe_2, 0
0274   390F           00863         ANDLW b'00001111'
0275   0085           00864         MOVWF PORTA
0276   08??           00865         MOVF stripe_2, 0
0277   39F0           00866         ANDLW b'11110000'
0278   00??           00867         MOVWF msb
0279   0E??           00868         SWAPF msb, 0
027A   0086           00869         MOVWF PORTB     
027B   0008           00870         RETURN
Warning[207]: Found label after column 1. (seconds_u_3)
027C                  00871     seconds_u_3:
027C   08??           00872         MOVF column_counter, 0
027D   3C03           00873         SUBLW .3
027E   1D03           00874         BTFSS STATUS, Z
027F   2???           00875         GOTO seconds_u_4
0280   08??           00876         MOVF stripe_3, 0
0281   390F           00877         ANDLW b'00001111'
0282   0085           00878         MOVWF PORTA
0283   08??           00879         MOVF stripe_3, 0
0284   39F0           00880         ANDLW b'11110000'
0285   00??           00881         MOVWF msb
0286   0E??           00882         SWAPF msb, 0
0287   0086           00883         MOVWF PORTB
0288   0008           00884         RETURN
Warning[207]: Found label after column 1. (seconds_u_4)
0289                  00885     seconds_u_4:
MPASM 5.65                         RELOJ.ASM   3-7-2016  14:41:07         PAGE 20


LOC  OBJECT CODE     LINE SOURCE TEXT
  VALUE

0289   08??           00886         MOVF column_counter, 0
028A   3C04           00887         SUBLW .4
028B   1D03           00888         BTFSS STATUS, Z
028C   0008           00889         RETURN
028D   08??           00890         MOVF stripe_4, 0
028E   390F           00891         ANDLW b'00001111'
028F   0085           00892         MOVWF PORTA
0290   08??           00893         MOVF stripe_4, 0
0291   39F0           00894         ANDLW b'11110000'
0292   00??           00895         MOVWF msb
0293   0E??           00896         SWAPF msb, 0
0294   0086           00897         MOVWF PORTB
Warning[203]: Found opcode in column 1. (RETURN)
0295   0008           00898 RETURN
                      00899         
0296                  00900 ZERO:
0296   30FF           00901     MOVLW .255
0297   00??           00902     MOVWF stripe_1
0298   00??           00903     MOVWF stripe_4
0299   3081           00904     MOVLW b'10000001'
029A   00??           00905     MOVWF stripe_2
029B   00??           00906     MOVWF stripe_3
029C   0008           00907     RETURN
                      00908     
029D                  00909 ONE:
029D   01??           00910     CLRF stripe_1
029E   01??           00911     CLRF stripe_2
029F   01??           00912     CLRF stripe_3
02A0   30FF           00913     MOVLW .255
02A1   00??           00914     MOVWF stripe_4
02A2   0008           00915     RETURN
                      00916     
02A3                  00917 TWO:
02A3   30C2           00918     MOVLW b'11000010'
02A4   00??           00919     MOVWF stripe_1
02A5   30A1           00920     MOVLW b'10100001'
02A6   00??           00921     MOVWF stripe_2
02A7   3091           00922     MOVLW b'10010001'
02A8   00??           00923     MOVWF stripe_3
02A9   308E           00924     MOVLW b'10001110'
02AA   00??           00925     MOVWF stripe_4
02AB   0008           00926     RETURN
                      00927     
02AC                  00928 THREE:
02AC   3042           00929     MOVLW b'01000010'
02AD   00??           00930     MOVWF stripe_1
02AE   3081           00931     MOVLW b'10000001'
02AF   00??           00932     MOVWF stripe_2
02B0   3089           00933     MOVLW b'10001001'
02B1   00??           00934     MOVWF stripe_3
02B2   3076           00935     MOVLW b'01110110'
02B3   00??           00936     MOVWF stripe_4
02B4   0008           00937     RETURN
MPASM 5.65                         RELOJ.ASM   3-7-2016  14:41:07         PAGE 21


LOC  OBJECT CODE     LINE SOURCE TEXT
  VALUE

                      00938 
02B5                  00939 FOUR:
02B5   301F           00940     MOVLW b'00011111'
02B6   00??           00941     MOVWF stripe_1
02B7   3010           00942     MOVLW b'00010000'
02B8   00??           00943     MOVWF stripe_2
02B9   30FC           00944     MOVLW b'11111100'
02BA   00??           00945     MOVWF stripe_3
02BB   3010           00946     MOVLW b'00010000'
02BC   00??           00947     MOVWF stripe_4
02BD   0008           00948     RETURN
                      00949     
02BE                  00950 FIVE:
02BE   305F           00951     MOVLW b'01011111'
02BF   00??           00952     MOVWF stripe_1
02C0   3089           00953     MOVLW b'10001001'
02C1   00??           00954     MOVWF stripe_2
02C2   3089           00955     MOVLW b'10001001'
02C3   00??           00956     MOVWF stripe_3
02C4   3071           00957     MOVLW b'01110001'
02C5   00??           00958     MOVWF stripe_4
02C6   0008           00959     RETURN
                      00960 
02C7                  00961 SIX:
02C7   3078           00962     MOVLW b'01111000'
02C8   00??           00963     MOVWF stripe_1
02C9   308C           00964     MOVLW b'10001100'
02CA   00??           00965     MOVWF stripe_2
02CB   308A           00966     MOVLW b'10001010'
02CC   00??           00967     MOVWF stripe_3
02CD   3071           00968     MOVLW b'01110001'
02CE   00??           00969     MOVWF stripe_4
02CF   0008           00970     RETURN
                      00971     
02D0                  00972 SEVEN:
02D0   3001           00973     MOVLW b'00000001'
02D1   00??           00974     MOVWF stripe_1
02D2   3009           00975     MOVLW b'00001001'
02D3   00??           00976     MOVWF stripe_2
02D4   00??           00977     MOVWF stripe_3
02D5   30FF           00978     MOVLW b'11111111'
02D6   00??           00979     MOVWF stripe_4
02D7   0008           00980     RETURN
                      00981     
02D8                  00982 EIGHT:
02D8   3066           00983     MOVLW b'01100110'
02D9   00??           00984     MOVWF stripe_4
02DA   00??           00985     MOVWF stripe_1
02DB   3099           00986     MOVLW b'10011001'
02DC   00??           00987     MOVWF stripe_2
02DD   00??           00988     MOVWF stripe_3
02DE   0008           00989     RETURN
                      00990  
MPASM 5.65                         RELOJ.ASM   3-7-2016  14:41:07         PAGE 22


LOC  OBJECT CODE     LINE SOURCE TEXT
  VALUE

02DF                  00991 NINE:
02DF   308E           00992     MOVLW b'10001110'
02E0   00??           00993     MOVWF stripe_1
02E1   3091           00994     MOVLW b'10010001'
02E2   00??           00995     MOVWF stripe_2
02E3   00??           00996     MOVWF stripe_3
02E4   30EA           00997     MOVLW b'11101010'
02E5   00??           00998     MOVWF stripe_4
02E6   0008           00999     RETURN
                      01000 
02E7                  01001 SWITCHCASE:             ; Case implementation for display value assignment.
02E7   08??           01002     MOVF xor_var,0
02E8   3A00           01003     XORLW .0            ; Zero will result if W=L.
02E9   1903           01004     BTFSC STATUS, Z
02EA   2???           01005     GOTO CASE_ZERO
02EB   08??           01006     MOVF xor_var,0
02EC   3A01           01007     XORLW .1            ; Zero will result if W=L.
02ED   1903           01008     BTFSC STATUS, Z
02EE   2???           01009     GOTO CASE_ONE
02EF   08??           01010     MOVF xor_var,0
02F0   3A02           01011     XORLW .2            ; Zero will result if W=L.
02F1   1903           01012     BTFSC STATUS, Z
02F2   2???           01013     GOTO CASE_TWO
02F3   08??           01014     MOVF xor_var,0
02F4   3A03           01015     XORLW .3            ; Zero will result if W=L.
02F5   1903           01016     BTFSC STATUS, Z
02F6   2???           01017     GOTO CASE_THREE
02F7   08??           01018     MOVF xor_var,0
02F8   3A04           01019     XORLW .4            ; Zero will result if W=L.
02F9   1903           01020     BTFSC STATUS, Z
02FA   2???           01021     GOTO CASE_FOUR
02FB   08??           01022     MOVF xor_var,0
02FC   3A05           01023     XORLW .5            ; Zero will result if W=L.
02FD   1903           01024     BTFSC STATUS, Z
02FE   2???           01025     GOTO CASE_FIVE
02FF   08??           01026     MOVF xor_var,0
0300   3A06           01027     XORLW .6            ; Zero will result if W=L.
0301   1903           01028     BTFSC STATUS, Z
0302   2???           01029     GOTO CASE_SIX
0303   08??           01030     MOVF xor_var,0
0304   3A07           01031     XORLW .7            ; Zero will result if W=L.
0305   1903           01032     BTFSC STATUS, Z
0306   2???           01033     GOTO CASE_SEVEN
0307   08??           01034     MOVF xor_var,0
0308   3A08           01035     XORLW .8            ; Zero will result if W=L.
0309   1903           01036     BTFSC STATUS, Z
030A   2???           01037     GOTO CASE_EIGHT
030B   08??           01038     MOVF xor_var,0
030C   3A09           01039     XORLW .9            ; Zero will result if W=L.
030D   1903           01040     BTFSC STATUS, Z
030E   2???           01041     GOTO CASE_NINE
030F   2???           01042     GOTO DEFAULT  
                      01043     
MPASM 5.65                         RELOJ.ASM   3-7-2016  14:41:07         PAGE 23


LOC  OBJECT CODE     LINE SOURCE TEXT
  VALUE

Warning[207]: Found label after column 1. (CASE_ZERO)
0310                  01044    CASE_ZERO:
0310   2???           01045         CALL ZERO
0311   0008           01046         RETURN
Warning[207]: Found label after column 1. (CASE_ONE)
0312                  01047    CASE_ONE:
0312   2???           01048         CALL ONE
0313   0008           01049         RETURN
Warning[207]: Found label after column 1. (CASE_TWO)
0314                  01050    CASE_TWO:
0314   2???           01051         CALL TWO
0315   0008           01052         RETURN
Warning[207]: Found label after column 1. (CASE_THREE)
0316                  01053    CASE_THREE:
0316   2???           01054         CALL THREE
0317   0008           01055         RETURN
Warning[207]: Found label after column 1. (CASE_FOUR)
0318                  01056    CASE_FOUR:
0318   2???           01057         CALL FOUR
0319   0008           01058         RETURN
Warning[207]: Found label after column 1. (CASE_FIVE)
031A                  01059    CASE_FIVE:
031A   2???           01060         CALL FIVE
031B   0008           01061         RETURN
Warning[207]: Found label after column 1. (CASE_SIX)
031C                  01062    CASE_SIX:
031C   2???           01063         CALL SIX
031D   0008           01064         RETURN
Warning[207]: Found label after column 1. (CASE_SEVEN)
031E                  01065    CASE_SEVEN:
031E   2???           01066         CALL SEVEN
031F   0008           01067         RETURN
Warning[207]: Found label after column 1. (CASE_EIGHT)
0320                  01068    CASE_EIGHT:
0320   2???           01069         CALL EIGHT
0321   0008           01070         RETURN
Warning[207]: Found label after column 1. (CASE_NINE)
0322                  01071    CASE_NINE:
0322   2???           01072         CALL NINE
0323   0008           01073         RETURN
Warning[207]: Found label after column 1. (DEFAULT)
0324                  01074    DEFAULT:
0324   0008           01075     RETURN
                      01076     
                      01077     
0325                  01078 CHECK_ALARM:
0325   1C80           01079     BTFSS alarm_status, 1   ;Alarm ON or OFF?
0326   0008           01080     RETURN
0327   08??           01081     MOVF minutes, 0
0328   02??           01082     SUBWF alarm_minutes, 0
0329   1D03           01083     BTFSS STATUS, Z
032A   0008           01084     RETURN
032B   08??           01085     MOVF hours, 0
MPASM 5.65                         RELOJ.ASM   3-7-2016  14:41:07         PAGE 24


LOC  OBJECT CODE     LINE SOURCE TEXT
  VALUE

032C   02??           01086     SUBWF alarm_hours, 0
032D   1D03           01087     BTFSS STATUS, Z
032E   0008           01088     RETURN
                      01089     ;Do something!!
032F   0008           01090     RETURN
Warning[205]: Found directive in column 1. (END)
3FF2                  01091 END
MPASM 5.65                         RELOJ.ASM   3-7-2016  14:41:07         PAGE 25


SYMBOL TABLE
  LABEL                             VALUE 

ANIMATING                         0000003A
ANIMATION_DELAY                   0000002F
ANIMATION_DELAY_LOOP              00000032
ANIMATION_DISPLAY                 00000118
C                                 00000000
CASE_EIGHT                        00000320
CASE_FIVE                         0000031A
CASE_FOUR                         00000318
CASE_NINE                         00000322
CASE_ONE                          00000312
CASE_SEVEN                        0000031E
CASE_SIX                          0000031C
CASE_THREE                        00000316
CASE_TWO                          00000314
CASE_ZERO                         00000310
CHECK_ALARM                       00000325
CHECK_ANIMATION_STATE             0000002D
CHECK_HOURS_INC                   0000003D
CHECK_HOURS_T                     0000009A
CHECK_HOURS_U                     000000A5
CHECK_MINUTES_INC                 0000003B
CHECK_MINUTES_T                   000000BC
CHECK_MINUTES_U                   000000D3
CHECK_MODE                        0000002D
CHECK_SECONDS_T                   000000EA
CHECK_SECONDS_U                   00000101
COLUMN_COUNTER_CONTROL            0000000F
COLUMN_INDEX_CONTROL              00000018
COUNTER_INCREMENT                 00000014
COUNTER_RESET                     00000016
DC                                00000001
DEFAULT                           00000324
EEADR                             00000009
EECON1                            00000088
EECON2                            00000089
EEDATA                            00000008
EEIE                              00000006
EEIF                              00000004
EIGHT                             000002D8
EMPTY_SPACE_2                     000000B5
EMPTY_SPACE_3                     000000CC
EMPTY_SPACE_4                     000000E3
EMPTY_SPACE_5                     000000FA
EMPTY_SPACE_6                     00000111
EQUAL_11                          000000C7
EQUAL_16                          000000DE
EQUAL_21                          000000F5
EQUAL_26                          0000010C
EQUAL_6                           000000B0
EXIT                              0000011B
F                                 00000001
FIVE                              000002BE
FOUR                              000002B5
MPASM 5.65                         RELOJ.ASM   3-7-2016  14:41:07         PAGE 26


SYMBOL TABLE
  LABEL                             VALUE 

FSR                               00000004
GIE                               00000007
HALF_OFF                          00000115
HOURS_DELAY                       00000057
HOURS_DELAY_LOOP                  0000005A
HOURS_DISPLAY                     00000057
HOURS_INCREMENT                   0000005E
INDEX_INCREMENT                   0000001D
INDEX_RESET                       0000001F
INDF                              00000000
INTCON                            0000000B
INTE                              00000004
INTEDG                            00000006
INTF                              00000001
IRP                               00000007
MAINPROGRAM                       00000095
MINUTES_DELAY                     00000048
MINUTES_DELAY_LOOP                0000004B
MINUTES_DISPLAY                   00000048
MINUTES_INCREMENT                 0000004F
NINE                              000002DF
NOT_PD                            00000003
NOT_RBPU                          00000007
NOT_TO                            00000004
ONE                               0000029D
OPTION_REG                        00000081
PCL                               00000002
PCLATH                            0000000A
POP                               00000066
PORTA                             00000005
PORTB                             00000006
PS0                               00000000
PS1                               00000001
PS2                               00000002
PSA                               00000003
PUSH                              00000004
RA0                               00000000
RA1                               00000001
RA2                               00000002
RA3                               00000003
RA4                               00000004
RB0                               00000000
RB1                               00000001
RB2                               00000002
RB3                               00000003
RB4                               00000004
RB5                               00000005
RB6                               00000006
RB7                               00000007
RBI                               0000002A
RBIE                              00000003
RBIF                              00000000
RD                                00000000
MPASM 5.65                         RELOJ.ASM   3-7-2016  14:41:07         PAGE 27


SYMBOL TABLE
  LABEL                             VALUE 

RP0                               00000005
RP1                               00000006
SECONDS_CONTROL                   00000021
SECONDS_DISPLAY                   00000040
SECONDS_INCREMENT                 00000040
SETUP                             0000006E
SEVEN                             000002D0
SIX                               000002C7
SMALLER_EQUAL_14                  000000C1
SMALLER_EQUAL_19                  000000D8
SMALLER_EQUAL_24                  000000EF
SMALLER_EQUAL_29                  00000106
SMALLER_EQUAL_9                   000000AA
SPLIT_HOURS                       0000013C
SPLIT_HOURS_BORROW                00000149
SPLIT_HOURS_LOOP                  0000013F
SPLIT_HOURS_ZERO                  00000147
SPLIT_MINUTES                     0000012C
SPLIT_MINUTES_BORROW              00000139
SPLIT_MINUTES_LOOP                0000012F
SPLIT_MINUTES_ZERO                00000137
SPLIT_SECONDS                     0000011C
SPLIT_SECONDS_BORROW              00000129
SPLIT_SECONDS_LOOP                0000011F
SPLIT_SECONDS_ZERO                00000127
STATUS                            00000003
SWITCHCASE                        000002E7
T0CS                              00000005
T0IE                              00000005
T0IF                              00000002
T0SE                              00000004
THREE                             000002AC
TMR0                              00000001
TMR0IE                            00000005
TMR0IF                            00000002
TRISA                             00000085
TRISA0                            00000000
TRISA1                            00000001
TRISA2                            00000002
TRISA3                            00000003
TRISA4                            00000004
TRISB                             00000086
TRISB0                            00000000
TRISB1                            00000001
TRISB2                            00000002
TRISB3                            00000003
TRISB4                            00000004
TRISB5                            00000005
TRISB6                            00000006
TRISB7                            00000007
TWO                               000002A3
W                                 00000000
WR                                00000001
MPASM 5.65                         RELOJ.ASM   3-7-2016  14:41:07         PAGE 28


SYMBOL TABLE
  LABEL                             VALUE 

WREN                              00000002
WRERR                             00000003
Z                                 00000002
ZERO                              00000296
_CONFIG                           00002007
_CP_OFF                           00003FFF
_CP_ON                            0000000F
_DEVID1                           00002006
_FOSC_EXTRC                       00003FFF
_FOSC_HS                          00003FFE
_FOSC_LP                          00003FFC
_FOSC_XT                          00003FFD
_HS_OSC                           00003FFE
_IDLOC0                           00002000
_IDLOC1                           00002001
_IDLOC2                           00002002
_IDLOC3                           00002003
_LP_OSC                           00003FFC
_PWRTE_OFF                        00003FFF
_PWRTE_ON                         00003FF7
_RC_OSC                           00003FFF
_WDTE_OFF                         00003FFB
_WDTE_ON                          00003FFF
_WDT_OFF                          00003FFB
_WDT_ON                           00003FFF
_XT_OSC                           00003FFD
__16F84A                          00000001
__DEBUG                           
__MPLAB_DEBUGGER_SIMULATOR        1
alarm_hours                       00000018
alarm_minutes                     00000017
alarm_status                      00000019
animation                         00000027
animation_delay_counter           00000028
animation_delay_counter_1         00000029
column_counter                    0000001A
column_index                      0000001B
delay_counter                     0000000C
delay_counter_1                   0000000D
display_hours_t                   0000014C
display_hours_u                   00000183
display_minutes_t                 000001BA
display_minutes_u                 000001F1
display_seconds_t                 00000228
display_seconds_u                 0000025F
hours                             00000014
hours_delay_counter               00000025
hours_delay_counter_1             00000026
hours_t                           00000015
hours_t_1                         00000153
hours_t_2                         0000015C
hours_t_3                         00000169
hours_t_4                         00000176
MPASM 5.65                         RELOJ.ASM   3-7-2016  14:41:07         PAGE 29


SYMBOL TABLE
  LABEL                             VALUE 

hours_u                           00000016
hours_u_1                         0000018A
hours_u_2                         00000193
hours_u_3                         000001A0
hours_u_4                         000001AD
minutes                           00000011
minutes_delay_counter             00000023
minutes_delay_counter_1           00000024
minutes_t                         00000012
minutes_t_1                       000001C1
minutes_t_2                       000001CA
minutes_t_3                       000001D7
minutes_t_4                       000001E4
minutes_u                         00000013
minutes_u_1                       000001F8
minutes_u_2                       00000201
minutes_u_3                       0000020E
minutes_u_4                       0000021B
msb                               00000021
pclath_temp                       00000022
seconds                           0000000E
seconds_t                         0000000F
seconds_t_1                       0000022F
seconds_t_2                       00000238
seconds_t_3                       00000245
seconds_t_4                       00000252
seconds_u                         00000010
seconds_u_1                       00000266
seconds_u_2                       0000026F
seconds_u_3                       0000027C
seconds_u_4                       00000289
space_stripe                      00000020
status_temp                       00000021
stripe_1                          0000001C
stripe_2                          0000001D
stripe_3                          0000001E
stripe_4                          0000001F
w_temp                            00000020
w_temp1                           000000A0
xor_var                           00000022

Errors   :     0
Warnings :   107 reported,     0 suppressed
Messages :    18 reported,     0 suppressed

