MPASM 5.65                         RELOJ.ASM   2-29-2016  19:40:39         PAGE  1


LOC  OBJECT CODE     LINE SOURCE TEXT
  VALUE

                      00001 ;Universidad del Valle de Guatemala
                      00002 ;Microcontroladores Aplicados a la Industria
                      00003 ;Sección 21
                      00004 ;Daniel Lara Moir
                      00005 ;13424
                      00006 ;Reloj.asm   
                      00007 ;Programa para reloj en formato 24h HH:MM:SS.   
                      00008         
Warning[205]: Found directive in column 1. (list)
                      00009 list      p=16F84A            ; list directive to define processor
                      00010 #include <p16F84A.inc>        ; processor specific variable definitions
                      00001         LIST
                      00002 
                      00003 ;==========================================================================
                      00004 ; Build date : Dec 08 2015
                      00005 ;  MPASM PIC16F84A processor include
                      00006 ; 
                      00007 ;  (c) Copyright 1999-2015 Microchip Technology, All rights reserved
                      00008 ;==========================================================================
                      00009 
                      00209         LIST
                      00011 
Warning[205]: Found directive in column 1. (__CONFIG)
2007   3FF1           00012 __CONFIG   _CP_OFF & _WDT_OFF & _PWRTE_ON & _XT_OSC
                      00013     
                      00014 ;***************VARIABLE DEFINITION*********************************************
Warning[205]: Found directive in column 1. (UDATA_SHR)
                      00015 UDATA_SHR 0x0C
  00000020            00016 w_temp          EQU     0x20            ; variable used for context saving
  000000A0            00017 w_temp1         EQU     0xA0            ; reserve bank1 equivalent of w_temp 
  00000021            00018 status_temp     EQU     0x21            ; variable used for context saving
  00000022            00019 pclath_temp     EQU     0x22            ; variable used for context saving
000C                  00020 delay_counter   res 1                   ; For one second delay.
000D                  00021 seconds         res 1                   ; Variables for time storage.
000E                  00022 seconds_t       res 1   
000F                  00023 seconds_u       res 1
0010                  00024 minutes         res 1
0011                  00025 minutes_t       res 1
0012                  00026 minutes_u       res 1
0013                  00027 hours           res 1
0014                  00028 hours_t         res 1
0015                  00029 hours_u         res 1
0016                  00030 alarm_minutes   res 1                   ; Variables for alarm setting.
0017                  00031 alarm_hours     res 1
                      00032 ;*******************************************************************************
Warning[205]: Found directive in column 1. (ORG)
                      00033 ORG 0x0000
0000   0000           00034     NOP
0001   2???           00035     GOTO SETUP
                      00036 ;*******************************************************************************
Warning[205]: Found directive in column 1. (ORG)
                      00037 ORG 0x0004
Warning[207]: Found label after column 1. (PUSH)
MPASM 5.65                         RELOJ.ASM   2-29-2016  19:40:39         PAGE  2


LOC  OBJECT CODE     LINE SOURCE TEXT
  VALUE

0004                  00038     PUSH:
0004   00A0           00039         movwf   w_temp            ; save off current W register contents
0005   0803           00040         movf    STATUS,w          ; move status register into W register
0006   1283           00041         bcf     STATUS,RP0        ; ensure file register bank set to 0
0007   00A1           00042         movwf   status_temp       ; save off contents of STATUS register
0008   080A           00043         movf    PCLATH,w          ; move pclath register into w register
0009   00A2           00044         movwf   pclath_temp       ; save off contents of PCLATH register
                      00045 
                      00046 ;********TMR0 INTERRUPTION**************************************************
000A   1D0B           00047         BTFSS INTCON, T0IF        ; Check T0IF.
000B   2???           00048         GOTO RBI                  ; Exit interrupt vector. 
000C   110B           00049         BCF INTCON, T0IF
000D   303D           00050         MOVLW .61                 ; Pre-load TMR0
000E   0081           00051         MOVWF TMR0
000F   158B           00052         BSF INTCON, RBIE        
                      00053 
0010   0B??           00054         DECFSZ delay_counter, 1   ; 1 second has passed.
0011   2???           00055         GOTO POP
                      00056         
0012   3028           00057         MOVLW .40                   ; For 1 second delay.
0013   00??           00058         MOVWF delay_counter     
0014   2???           00059         GOTO SECONDS_INCREMENT
                      00060         
Warning[207]: Found label after column 1. (RBI)
0015                  00061     RBI:
0015   1C0B           00062         BTFSS INTCON, RBIF
0016   2???           00063         GOTO POP
0017   100B           00064         BCF INTCON, RBIF
                      00065         
Warning[207]: Found label after column 1. (CHECK_MINUTES_INC)
0018                  00066         CHECK_MINUTES_INC:
0018   1A06           00067             BTFSC PORTB, RB4
0019   2???           00068             GOTO MINUTES_INCREMENT
Warning[207]: Found label after column 1. (CHECK_HOURS_INC)
001A                  00069         CHECK_HOURS_INC:  
001A   1A86           00070             BTFSC PORTB, RB5
001B   2???           00071             GOTO HOURS_INCREMENT
001C   2???           00072             GOTO POP
                      00073         
                      00074            
                      00075             
                      00076         
Warning[207]: Found label after column 1. (SECONDS_DISPLAY)
001D                  00077         SECONDS_DISPLAY:
                      00078         ;    BTFSC PORTA,0              
                      00079          ;   GOTO second_hand_on        
                      00080           ;  BSF PORTA,0                        ; Apaga el LED
                      00081            ; GOTO SECONDS_INCREMENT
                      00082             ;second_hand_on:
                      00083              ;   BCF PORTA,0                    ; Enciende el LED 
                      00084         
Warning[207]: Found label after column 1. (SECONDS_INCREMENT)
001D                  00085         SECONDS_INCREMENT:
MPASM 5.65                         RELOJ.ASM   2-29-2016  19:40:39         PAGE  3


LOC  OBJECT CODE     LINE SOURCE TEXT
  VALUE

001D   0A??           00086             INCF seconds, f                     ; Circular increment of seconds.
001E   08??           00087             MOVF seconds, 0
001F   3C3C           00088             SUBLW .60
0020   1D03           00089             BTFSS STATUS, Z
0021   2???           00090             GOTO POP
0022   3000           00091             MOVLW .0
0023   00??           00092             MOVWF seconds
                      00093 
Warning[207]: Found label after column 1. (MINUTES_DISPLAY)
0024                  00094         MINUTES_DISPLAY:
                      00095             ;BTFSC PORTA, 1
                      00096             ;GOTO minute_hand_on
                      00097             ;BSF PORTA, 1
                      00098             ;GOTO MINUTES_INCREMENT
                      00099             ;minute_hand_on:
                      00100         ;       BCF PORTA, 1
                      00101                 
Warning[207]: Found label after column 1. (MINUTES_INCREMENT)
0024                  00102         MINUTES_INCREMENT:
0024   0A??           00103             INCF minutes, f                     ; Circular increment of minutes.        
0025   08??           00104             MOVF minutes, 0
0026   3C3C           00105             SUBLW .60
0027   1D03           00106             BTFSS STATUS, Z
0028   2???           00107             GOTO POP
0029   3000           00108             MOVLW .0
002A   00??           00109             MOVWF minutes
                      00110         
Warning[207]: Found label after column 1. (HOURS_DISPLAY)
002B                  00111         HOURS_DISPLAY:
                      00112          ;   BTFSC PORTA, 2
                      00113           ;  GOTO hour_hand_on
                      00114            ; BSF PORTA, 2
                      00115             ;GOTO HOURS_INCREMENT
                      00116             ;hour_hand_on:
                      00117         ;       BCF PORTA, 2
                      00118         
Warning[207]: Found label after column 1. (HOURS_INCREMENT)
002B                  00119         HOURS_INCREMENT:
002B   0A??           00120             INCF hours, f                       ; Circular increment of hours.
002C   08??           00121             MOVF hours, 0
002D   3C18           00122             SUBLW .24
002E   1D03           00123             BTFSS STATUS, Z
002F   2???           00124             GOTO POP
0030   3000           00125             MOVLW .0
0031   00??           00126             MOVWF hours
                      00127 ;*******EXIT INTERRUPT VECTOR***********************************************        
Warning[207]: Found label after column 1. (POP)
0032                  00128     POP:
0032   1283           00129         bcf     STATUS,RP0        ; ensure file register bank set to 0
0033   0822           00130         movf    pclath_temp,w     ; retrieve copy of PCLATH register
0034   008A           00131         movwf   PCLATH            ; restore pre-isr PCLATH register contents
0035   0821           00132         movf    status_temp,w     ; retrieve copy of STATUS register
0036   0083           00133         movwf   STATUS            ; restore pre-isr STATUS register contents
MPASM 5.65                         RELOJ.ASM   2-29-2016  19:40:39         PAGE  4


LOC  OBJECT CODE     LINE SOURCE TEXT
  VALUE

0037   0EA0           00134         swapf   w_temp,f
0038   0E20           00135         swapf   w_temp,w          ; restore pre-isr W register contents
0039   0009           00136         RETFIE
                      00137 ;*******************************************************************************
                      00138     
003A                  00139 SETUP:
003A   1683           00140     BSF STATUS, RP0             ; Bank select 1
Message[302]: Register in operand not in bank 0.  Ensure that bank bits are correct.
003B   0185           00141     CLRF TRISA       
Message[302]: Register in operand not in bank 0.  Ensure that bank bits are correct.
003C   0186           00142     CLRF TRISB       
003D   30F0           00143     MOVLW b'11110000'
Message[302]: Register in operand not in bank 0.  Ensure that bank bits are correct.
003E   0086           00144     MOVWF TRISB
Message[302]: Register in operand not in bank 0.  Ensure that bank bits are correct.
003F   0185           00145     CLRF TRISA
0040   30A8           00146     MOVLW b'10101000'
0041   008B           00147     MOVWF INTCON
                      00148             
Message[302]: Register in operand not in bank 0.  Ensure that bank bits are correct.
0042   1281           00149     BCF OPTION_REG, T0CS        ; TMR0 CLOCK SOURCE: INTERNAL INSTRUCTION CYCLE CLOCK
Message[302]: Register in operand not in bank 0.  Ensure that bank bits are correct.
0043   1181           00150     BCF OPTION_REG, PSA         ; PRESCALER ASSIGNMENT: TIMER0 MODULE
Message[302]: Register in operand not in bank 0.  Ensure that bank bits are correct.
0044   1501           00151     BSF OPTION_REG, PS2         ; PRESCALER RATE: 1:256
Message[302]: Register in operand not in bank 0.  Ensure that bank bits are correct.
0045   1481           00152     BSF OPTION_REG, PS1         ; PRESCALER RATE: 1:256
Message[302]: Register in operand not in bank 0.  Ensure that bank bits are correct.
0046   1401           00153     BSF OPTION_REG, PS0         ; PRESCALER RATE: 1:256
                      00154 
0047   1283           00155     BCF STATUS, RP0             ; bank select 1 
0048   0185           00156     CLRF PORTA                  
0049   0186           00157     CLRF PORTB
                      00158     
004A   3028           00159     MOVLW .40                   ; For TMR0 delay of 1000ms 
004B   00??           00160     MOVWF delay_counter
                      00161     
004C   300F           00162     MOVLW .15                   ; Initial time.
004D   00??           00163     MOVWF seconds
004E   00??           00164     MOVWF minutes
004F   00??           00165     MOVWF hours
                      00166     
                      00167 
                      00168     
0050                  00169 MAINPROGRAM:
0050   2???           00170     CALL SPLIT_SECONDS          ; Call to get HH:MM:SS
0051   2???           00171     CALL SPLIT_MINUTES
0052   2???           00172     CALL SPLIT_HOURS
0053   08??           00173     MOVF minutes, 0
0054   0085           00174     MOVWF PORTA
0055   2???           00175     GOTO MAINPROGRAM            ; Unconditional loop.
                      00176     
0056                  00177 SPLIT_SECONDS:                          ; Splits digits.
MPASM 5.65                         RELOJ.ASM   2-29-2016  19:40:39         PAGE  5


LOC  OBJECT CODE     LINE SOURCE TEXT
  VALUE

0056   08??           00178     MOVF seconds, 0         
0057   00??           00179     MOVWF seconds_u
0058   01??           00180     CLRF seconds_t
Warning[207]: Found label after column 1. (SPLIT_SECONDS_LOOP)
0059                  00181     SPLIT_SECONDS_LOOP:                 ; Succesive substraction algorithm.
0059   300A           00182         MOVLW .10
005A   02??           00183         SUBWF seconds_u, f
005B   1903           00184         BTFSC STATUS, Z                 ; Check for zero in result. 
005C   2???           00185         GOTO SPLIT_SECONDS_ZERO
005D   1C03           00186         BTFSS STATUS, C                 ; Check for underflow.
005E   2???           00187         GOTO SPLIT_SECONDS_BORROW
Message[305]: Using default destination of 1 (file).
005F   0A??           00188         INCF seconds_t                  ; If none of the above -> increment.
0060   2???           00189         GOTO SPLIT_SECONDS_LOOP         ; Loop.
Warning[207]: Found label after column 1. (SPLIT_SECONDS_ZERO)
0061                  00190     SPLIT_SECONDS_ZERO:
0061   0A??           00191         INCF seconds_t, f               ; Increment and exit.
0062   0008           00192         RETURN
Warning[207]: Found label after column 1. (SPLIT_SECONDS_BORROW)
0063                  00193     SPLIT_SECONDS_BORROW:
0063   300A           00194         MOVLW .10                       ; Restore original value and exit.
0064   07??           00195         ADDWF seconds_u, f
0065   0008           00196         RETURN
                      00197 
0066                  00198 SPLIT_MINUTES:
0066   08??           00199     MOVF minutes, 0
0067   00??           00200     MOVWF minutes_u
0068   01??           00201     CLRF minutes_t
Warning[207]: Found label after column 1. (SPLIT_MINUTES_LOOP)
0069                  00202     SPLIT_MINUTES_LOOP:
0069   300A           00203         MOVLW .10
006A   02??           00204         SUBWF minutes_u, f
006B   1903           00205         BTFSC STATUS, Z
006C   2???           00206         GOTO SPLIT_MINUTES_ZERO
006D   1C03           00207         BTFSS STATUS, C
006E   2???           00208         GOTO SPLIT_MINUTES_BORROW
Message[305]: Using default destination of 1 (file).
006F   0A??           00209         INCF minutes_t
0070   2???           00210         GOTO SPLIT_MINUTES_LOOP
Warning[207]: Found label after column 1. (SPLIT_MINUTES_ZERO)
0071                  00211     SPLIT_MINUTES_ZERO:
0071   0A??           00212         INCF minutes_t, f 
0072   0008           00213         RETURN
Warning[207]: Found label after column 1. (SPLIT_MINUTES_BORROW)
0073                  00214     SPLIT_MINUTES_BORROW:
0073   300A           00215         MOVLW .10
0074   07??           00216         ADDWF minutes_u, f
0075   0008           00217         RETURN
                      00218         
0076                  00219 SPLIT_HOURS:
0076   08??           00220     MOVF hours, 0
0077   00??           00221     MOVWF hours_u
0078   01??           00222     CLRF hours_t
MPASM 5.65                         RELOJ.ASM   2-29-2016  19:40:39         PAGE  6


LOC  OBJECT CODE     LINE SOURCE TEXT
  VALUE

Warning[207]: Found label after column 1. (SPLIT_HOURS_LOOP)
0079                  00223     SPLIT_HOURS_LOOP:
0079   300A           00224         MOVLW .10
007A   02??           00225         SUBWF hours_u, f
007B   1903           00226         BTFSC STATUS, Z
007C   2???           00227         GOTO SPLIT_HOURS_ZERO
007D   1C03           00228         BTFSS STATUS, C
007E   2???           00229         GOTO SPLIT_HOURS_BORROW
Message[305]: Using default destination of 1 (file).
007F   0A??           00230         INCF hours_t
0080   2???           00231         GOTO SPLIT_HOURS_LOOP
Warning[207]: Found label after column 1. (SPLIT_HOURS_ZERO)
0081                  00232     SPLIT_HOURS_ZERO:
0081   0A??           00233         INCF hours_t, f 
0082   0008           00234         RETURN
Warning[207]: Found label after column 1. (SPLIT_HOURS_BORROW)
0083                  00235     SPLIT_HOURS_BORROW:
0083   300A           00236         MOVLW .10
0084   07??           00237         ADDWF hours_u, f
0085   0008           00238         RETURN
                      00239         
Warning[205]: Found directive in column 1. (END)
3FF1                  00240 END
MPASM 5.65                         RELOJ.ASM   2-29-2016  19:40:39         PAGE  7


SYMBOL TABLE
  LABEL                             VALUE 

C                                 00000000
CHECK_HOURS_INC                   0000001A
CHECK_MINUTES_INC                 00000018
DC                                00000001
EEADR                             00000009
EECON1                            00000088
EECON2                            00000089
EEDATA                            00000008
EEIE                              00000006
EEIF                              00000004
F                                 00000001
FSR                               00000004
GIE                               00000007
HOURS_DISPLAY                     0000002B
HOURS_INCREMENT                   0000002B
INDF                              00000000
INTCON                            0000000B
INTE                              00000004
INTEDG                            00000006
INTF                              00000001
IRP                               00000007
MAINPROGRAM                       00000050
MINUTES_DISPLAY                   00000024
MINUTES_INCREMENT                 00000024
NOT_PD                            00000003
NOT_RBPU                          00000007
NOT_TO                            00000004
OPTION_REG                        00000081
PCL                               00000002
PCLATH                            0000000A
POP                               00000032
PORTA                             00000005
PORTB                             00000006
PS0                               00000000
PS1                               00000001
PS2                               00000002
PSA                               00000003
PUSH                              00000004
RA0                               00000000
RA1                               00000001
RA2                               00000002
RA3                               00000003
RA4                               00000004
RB0                               00000000
RB1                               00000001
RB2                               00000002
RB3                               00000003
RB4                               00000004
RB5                               00000005
RB6                               00000006
RB7                               00000007
RBI                               00000015
RBIE                              00000003
MPASM 5.65                         RELOJ.ASM   2-29-2016  19:40:39         PAGE  8


SYMBOL TABLE
  LABEL                             VALUE 

RBIF                              00000000
RD                                00000000
RP0                               00000005
RP1                               00000006
SECONDS_DISPLAY                   0000001D
SECONDS_INCREMENT                 0000001D
SETUP                             0000003A
SPLIT_HOURS                       00000076
SPLIT_HOURS_BORROW                00000083
SPLIT_HOURS_LOOP                  00000079
SPLIT_HOURS_ZERO                  00000081
SPLIT_MINUTES                     00000066
SPLIT_MINUTES_BORROW              00000073
SPLIT_MINUTES_LOOP                00000069
SPLIT_MINUTES_ZERO                00000071
SPLIT_SECONDS                     00000056
SPLIT_SECONDS_BORROW              00000063
SPLIT_SECONDS_LOOP                00000059
SPLIT_SECONDS_ZERO                00000061
STATUS                            00000003
T0CS                              00000005
T0IE                              00000005
T0IF                              00000002
T0SE                              00000004
TMR0                              00000001
TMR0IE                            00000005
TMR0IF                            00000002
TRISA                             00000085
TRISA0                            00000000
TRISA1                            00000001
TRISA2                            00000002
TRISA3                            00000003
TRISA4                            00000004
TRISB                             00000086
TRISB0                            00000000
TRISB1                            00000001
TRISB2                            00000002
TRISB3                            00000003
TRISB4                            00000004
TRISB5                            00000005
TRISB6                            00000006
TRISB7                            00000007
W                                 00000000
WR                                00000001
WREN                              00000002
WRERR                             00000003
Z                                 00000002
_CONFIG                           00002007
_CP_OFF                           00003FFF
_CP_ON                            0000000F
_DEVID1                           00002006
_FOSC_EXTRC                       00003FFF
_FOSC_HS                          00003FFE
MPASM 5.65                         RELOJ.ASM   2-29-2016  19:40:39         PAGE  9


SYMBOL TABLE
  LABEL                             VALUE 

_FOSC_LP                          00003FFC
_FOSC_XT                          00003FFD
_HS_OSC                           00003FFE
_IDLOC0                           00002000
_IDLOC1                           00002001
_IDLOC2                           00002002
_IDLOC3                           00002003
_LP_OSC                           00003FFC
_PWRTE_OFF                        00003FFF
_PWRTE_ON                         00003FF7
_RC_OSC                           00003FFF
_WDTE_OFF                         00003FFB
_WDTE_ON                          00003FFF
_WDT_OFF                          00003FFB
_WDT_ON                           00003FFF
_XT_OSC                           00003FFD
__16F84A                          00000001
__DEBUG                           
__MPLAB_DEBUGGER_SIMULATOR        1
alarm_hours                       00000017
alarm_minutes                     00000016
delay_counter                     0000000C
hours                             00000013
hours_t                           00000014
hours_u                           00000015
minutes                           00000010
minutes_t                         00000011
minutes_u                         00000012
pclath_temp                       00000022
seconds                           0000000D
seconds_t                         0000000E
seconds_u                         0000000F
status_temp                       00000021
w_temp                            00000020
w_temp1                           000000A0

Errors   :     0
Warnings :    26 reported,     0 suppressed
Messages :    12 reported,     0 suppressed

